target datalayout = "e-m:e-p270:32:32-p271:32:32-p272:64:64-i64:64-i128:128-f80:128-n8:16:32:64-S128"
target triple = "x86_64-pc-linux-gnu"

%struct.text_buffer = type { ptr, i64, i64 }
%struct.node = type { i32, ptr, %union.anon }
%union.anon = type { %struct.anon }
%struct.anon = type { ptr, ptr }

; Function Attrs: nounwind uwtable
define internal i32 @textbuffer_ensure_capacity(ptr noundef %0, i64 noundef %1) #0 {
  %3 = alloca i32, align 4
  %4 = alloca ptr, align 8
  %5 = alloca i64, align 8
  %6 = alloca ptr, align 8
  %7 = alloca i32, align 4
  store ptr %0, ptr %4, align 8
  store i64 %1, ptr %5, align 8
  %8 = load ptr, ptr %4, align 8
  %9 = getelementptr inbounds %struct.text_buffer, ptr %8, i32 0, i32 1
  %10 = load i64, ptr %9, align 8
  %11 = load i64, ptr %5, align 8
  %12 = add i64 %10, %11
  %13 = load ptr, ptr %4, align 8
  %14 = getelementptr inbounds %struct.text_buffer, ptr %13, i32 0, i32 2
  %15 = load i64, ptr %14, align 8
  %16 = icmp ugt i64 %12, %15
  br i1 %16, label %17, label %59

17:                                               ; preds = %2
  %18 = load ptr, ptr %4, align 8
  %19 = getelementptr inbounds %struct.text_buffer, ptr %18, i32 0, i32 1
  %20 = load i64, ptr %19, align 8
  %21 = load i64, ptr %5, align 8
  %22 = add i64 %20, %21
  %23 = load ptr, ptr %4, align 8
  %24 = getelementptr inbounds %struct.text_buffer, ptr %23, i32 0, i32 2
  %25 = load i64, ptr %24, align 8
  %26 = add i64 %25, 4096
  %27 = icmp ugt i64 %22, %26
  br i1 %27, label %28, label %34

28:                                               ; preds = %17
  %29 = load ptr, ptr %4, align 8
  %30 = getelementptr inbounds %struct.text_buffer, ptr %29, i32 0, i32 1
  %31 = load i64, ptr %30, align 8
  %32 = load i64, ptr %5, align 8
  %33 = add i64 %31, %32
  br label %39

34:                                               ; preds = %17
  %35 = load ptr, ptr %4, align 8
  %36 = getelementptr inbounds %struct.text_buffer, ptr %35, i32 0, i32 2
  %37 = load i64, ptr %36, align 8
  %38 = add i64 %37, 4096
  br label %39

39:                                               ; preds = %34, %28
  %40 = phi i64 [ %33, %28 ], [ %38, %34 ]
  %41 = trunc i64 %40 to i32
  store i32 %41, ptr %7, align 4
  %42 = load ptr, ptr %4, align 8
  %43 = getelementptr inbounds %struct.text_buffer, ptr %42, i32 0, i32 0
  %44 = load ptr, ptr %43, align 8
  %45 = load i32, ptr %7, align 4
  %46 = zext i32 %45 to i64
  %47 = call ptr @cli_max_realloc(ptr noundef %44, i64 noundef %46)
  store ptr %47, ptr %6, align 8
  %48 = load ptr, ptr %6, align 8
  %49 = icmp ne ptr %48, null
  br i1 %49, label %51, label %50

50:                                               ; preds = %39
  store i32 -1, ptr %3, align 4
  br label %60

51:                                               ; preds = %39
  %52 = load i32, ptr %7, align 4
  %53 = zext i32 %52 to i64
  %54 = load ptr, ptr %4, align 8
  %55 = getelementptr inbounds %struct.text_buffer, ptr %54, i32 0, i32 2
  store i64 %53, ptr %55, align 8
  %56 = load ptr, ptr %6, align 8
  %57 = load ptr, ptr %4, align 8
  %58 = getelementptr inbounds %struct.text_buffer, ptr %57, i32 0, i32 0
  store ptr %56, ptr %58, align 8
  br label %59

59:                                               ; preds = %51, %2
  store i32 0, ptr %3, align 4
  br label %60

60:                                               ; preds = %59, %50
  %61 = load i32, ptr %3, align 4
  ret i32 %61
}

; Function Attrs: nounwind uwtable
define internal i32 @textbuffer_putc(ptr noundef %0, i8 noundef signext %1) #0 {
  %3 = alloca i32, align 4
  %4 = alloca ptr, align 8
  %5 = alloca i8, align 1
  store ptr %0, ptr %4, align 8
  store i8 %1, ptr %5, align 1
  %6 = load ptr, ptr %4, align 8
  %7 = call i32 @textbuffer_ensure_capacity(ptr noundef %6, i64 noundef 1)
  %8 = icmp eq i32 %7, -1
  br i1 %8, label %9, label %10

9:                                                ; preds = %2
  store i32 -1, ptr %3, align 4
  br label %20

10:                                               ; preds = %2
  %11 = load i8, ptr %5, align 1
  %12 = load ptr, ptr %4, align 8
  %13 = getelementptr inbounds %struct.text_buffer, ptr %12, i32 0, i32 0
  %14 = load ptr, ptr %13, align 8
  %15 = load ptr, ptr %4, align 8
  %16 = getelementptr inbounds %struct.text_buffer, ptr %15, i32 0, i32 1
  %17 = load i64, ptr %16, align 8
  %18 = add i64 %17, 1
  store i64 %18, ptr %16, align 8
  %19 = getelementptr inbounds i8, ptr %14, i64 %17
  store i8 %11, ptr %19, align 1
  store i32 0, ptr %3, align 4
  br label %20

20:                                               ; preds = %10, %9
  %21 = load i32, ptr %3, align 4
  ret i32 %21
}

; Function Attrs: nounwind uwtable
define internal i32 @build_suffixtree_descend(ptr noundef %0, ptr noundef %1, ptr noundef %2, ptr noundef %3, ptr noundef %4) #0 {
  %6 = alloca i32, align 4
  %7 = alloca ptr, align 8
  %8 = alloca ptr, align 8
  %9 = alloca ptr, align 8
  %10 = alloca ptr, align 8
  %11 = alloca ptr, align 8
  %12 = alloca i64, align 8
  store ptr %0, ptr %7, align 8
  store ptr %1, ptr %8, align 8
  store ptr %2, ptr %9, align 8
  store ptr %3, ptr %10, align 8
  store ptr %4, ptr %11, align 8
  br label %13

13:                                               ; preds = %23, %5
  %14 = load ptr, ptr %7, align 8
  %15 = icmp ne ptr %14, null
  br i1 %15, label %16, label %21

16:                                               ; preds = %13
  %17 = load ptr, ptr %7, align 8
  %18 = getelementptr inbounds %struct.node, ptr %17, i32 0, i32 0
  %19 = load i32, ptr %18, align 8
  %20 = icmp eq i32 %19, 1
  br label %21

21:                                               ; preds = %16, %13
  %22 = phi i1 [ false, %13 ], [ %20, %16 ]
  br i1 %22, label %23, label %28

23:                                               ; preds = %21
  %24 = load ptr, ptr %7, align 8
  %25 = getelementptr inbounds %struct.node, ptr %24, i32 0, i32 2
  %26 = getelementptr inbounds %struct.anon, ptr %25, i32 0, i32 1
  %27 = load ptr, ptr %26, align 8
  store ptr %27, ptr %7, align 8
  br label %13

28:                                               ; preds = %21
  %29 = load ptr, ptr %7, align 8
  %30 = icmp ne ptr %29, null
  br i1 %30, label %32, label %31

31:                                               ; preds = %28
  store i32 0, ptr %6, align 4
  br label %99

32:                                               ; preds = %28
  %33 = load ptr, ptr %7, align 8
  %34 = getelementptr inbounds %struct.node, ptr %33, i32 0, i32 0
  %35 = load i32, ptr %34, align 8
  switch i32 %35, label %97 [
    i32 2, label %36
    i32 3, label %70
    i32 4, label %87
    i32 5, label %87
  ]

36:                                               ; preds = %32
  %37 = load ptr, ptr %8, align 8
  %38 = getelementptr inbounds %struct.text_buffer, ptr %37, i32 0, i32 1
  %39 = load i64, ptr %38, align 8
  store i64 %39, ptr %12, align 8
  %40 = load ptr, ptr %7, align 8
  %41 = getelementptr inbounds %struct.node, ptr %40, i32 0, i32 2
  %42 = getelementptr inbounds %struct.anon, ptr %41, i32 0, i32 0
  %43 = load ptr, ptr %42, align 8
  %44 = load ptr, ptr %8, align 8
  %45 = load ptr, ptr %9, align 8
  %46 = load ptr, ptr %10, align 8
  %47 = load ptr, ptr %11, align 8
  %48 = call i32 @build_suffixtree_descend(ptr noundef %43, ptr noundef %44, ptr noundef %45, ptr noundef %46, ptr noundef %47)
  %49 = icmp ne i32 %48, 0
  br i1 %49, label %50, label %51

50:                                               ; preds = %36
  store i32 20, ptr %6, align 4
  br label %99

51:                                               ; preds = %36
  %52 = load i64, ptr %12, align 8
  %53 = load ptr, ptr %8, align 8
  %54 = getelementptr inbounds %struct.text_buffer, ptr %53, i32 0, i32 1
  store i64 %52, ptr %54, align 8
  %55 = load ptr, ptr %7, align 8
  %56 = getelementptr inbounds %struct.node, ptr %55, i32 0, i32 2
  %57 = getelementptr inbounds %struct.anon, ptr %56, i32 0, i32 1
  %58 = load ptr, ptr %57, align 8
  %59 = load ptr, ptr %8, align 8
  %60 = load ptr, ptr %9, align 8
  %61 = load ptr, ptr %10, align 8
  %62 = load ptr, ptr %11, align 8
  %63 = call i32 @build_suffixtree_descend(ptr noundef %58, ptr noundef %59, ptr noundef %60, ptr noundef %61, ptr noundef %62)
  %64 = icmp ne i32 %63, 0
  br i1 %64, label %65, label %66

65:                                               ; preds = %51
  store i32 20, ptr %6, align 4
  br label %99

66:                                               ; preds = %51
  %67 = load i64, ptr %12, align 8
  %68 = load ptr, ptr %8, align 8
  %69 = getelementptr inbounds %struct.text_buffer, ptr %68, i32 0, i32 1
  store i64 %67, ptr %69, align 8
  br label %98

70:                                               ; preds = %32
  %71 = load ptr, ptr %8, align 8
  %72 = call i32 @textbuffer_putc(ptr noundef %71, i8 noundef signext 0)
  %73 = load ptr, ptr %9, align 8
  %74 = load ptr, ptr %10, align 8
  %75 = load ptr, ptr %8, align 8
  %76 = getelementptr inbounds %struct.text_buffer, ptr %75, i32 0, i32 0
  %77 = load ptr, ptr %76, align 8
  %78 = load ptr, ptr %8, align 8
  %79 = getelementptr inbounds %struct.text_buffer, ptr %78, i32 0, i32 1
  %80 = load i64, ptr %79, align 8
  %81 = sub i64 %80, 1
  %82 = load ptr, ptr %11, align 8
  %83 = call i32 %73(ptr noundef %74, ptr noundef %77, i64 noundef %81, ptr noundef %82)
  %84 = icmp ne i32 %83, 0
  br i1 %84, label %85, label %86

85:                                               ; preds = %70
  store i32 20, ptr %6, align 4
  br label %99

86:                                               ; preds = %70
  store i32 0, ptr %6, align 4
  br label %99

87:                                               ; preds = %32, %32
  %88 = load ptr, ptr %7, align 8
  %89 = load ptr, ptr %8, align 8
  %90 = load ptr, ptr %9, align 8
  %91 = load ptr, ptr %10, align 8
  %92 = load ptr, ptr %11, align 8
  %93 = call i32 @build_suffixtree_ascend(ptr noundef %88, ptr noundef %89, ptr noundef null, ptr noundef %90, ptr noundef %91, ptr noundef %92)
  %94 = icmp ne i32 %93, 0
  br i1 %94, label %95, label %96

95:                                               ; preds = %87
  store i32 20, ptr %6, align 4
  br label %99

96:                                               ; preds = %87
  store i32 0, ptr %6, align 4
  br label %99

97:                                               ; preds = %32
  br label %98

98:                                               ; preds = %97, %66
  store i32 0, ptr %6, align 4
  br label %99

99:                                               ; preds = %98, %96, %95, %86, %85, %65, %50, %31
  %100 = load i32, ptr %6, align 4
  ret i32 %100
}