; Function Attrs: nounwind uwtable
define internal fastcc i32 @build_suffixtree_descend(ptr noundef %0, ptr nocapture noundef %1, ptr nocapture noundef readonly %2, ptr noundef %3, ptr noundef %4) unnamed_addr #0 {
  %.not41 = icmp eq ptr %0, null
  br i1 %.not41, label %.critedge36, label %.lr.ph

.lr.ph:                                           ; preds = %5, %7
  %.03142 = phi ptr [ %9, %7 ], [ %0, %5 ]
  %6 = load i32, ptr %.03142, align 8
  switch i32 %6, label %.critedge36 [
    i32 1, label %7
    i32 2, label %10
    i32 3, label %21
    i32 4, label %41
    i32 5, label %41
  ]

7:                                                ; preds = %.lr.ph
  %8 = getelementptr inbounds i8, ptr %.03142, i64 24
  %9 = load ptr, ptr %8, align 8
  %.not = icmp eq ptr %9, null
  br i1 %.not, label %.critedge36, label %.lr.ph

10:                                               ; preds = %.lr.ph
  %11 = getelementptr inbounds i8, ptr %1, i64 8
  %12 = load i64, ptr %11, align 8
  %13 = getelementptr inbounds i8, ptr %.03142, i64 16
  %14 = load ptr, ptr %13, align 8
  %15 = tail call fastcc i32 @build_suffixtree_descend(ptr noundef %14, ptr noundef %1, ptr noundef %2, ptr noundef %3, ptr noundef %4), !range !4
  %.not34 = icmp eq i32 %15, 0
  br i1 %.not34, label %16, label %.critedge36

16:                                               ; preds = %10
  store i64 %12, ptr %11, align 8
  %17 = getelementptr inbounds i8, ptr %.03142, i64 24
  %18 = load ptr, ptr %17, align 8
  %19 = tail call fastcc i32 @build_suffixtree_descend(ptr noundef %18, ptr noundef nonnull %1, ptr noundef %2, ptr noundef %3, ptr noundef %4), !range !4
  %.not35 = icmp eq i32 %19, 0
  br i1 %.not35, label %20, label %.critedge36

20:                                               ; preds = %16
  store i64 %12, ptr %11, align 8
  br label %.critedge36

21:                                               ; preds = %.lr.ph
  %22 = getelementptr inbounds i8, ptr %1, i64 8
  %23 = load i64, ptr %22, align 8
  %24 = add i64 %23, 1
  %25 = getelementptr inbounds i8, ptr %1, i64 16
  %26 = load i64, ptr %25, align 8
  %27 = icmp ugt i64 %24, %26
  %.pre.i = load ptr, ptr %1, align 8
  br i1 %27, label %28, label %33

28:                                               ; preds = %21
  %29 = add i64 %26, 4096
  %..i.i = tail call i64 @llvm.umax.i64(i64 %24, i64 %29)
  %30 = and i64 %..i.i, 4294967295
  %31 = tail call ptr @cli_max_realloc(ptr noundef %.pre.i, i64 noundef %30) #8
  %.not.i.i = icmp eq ptr %31, null
  br i1 %.not.i.i, label %textbuffer_putc.exit, label %32

32:                                               ; preds = %28
  store i64 %30, ptr %25, align 8
  store ptr %31, ptr %1, align 8
  %.pre5.i = load i64, ptr %22, align 8
  %.pre6.i = add i64 %.pre5.i, 1
  br label %33

33:                                               ; preds = %32, %21
  %.pre-phi.i = phi i64 [ %.pre6.i, %32 ], [ %24, %21 ]
  %34 = phi i64 [ %.pre5.i, %32 ], [ %23, %21 ]
  %35 = phi ptr [ %31, %32 ], [ %.pre.i, %21 ]
  store i64 %.pre-phi.i, ptr %22, align 8
  %36 = getelementptr inbounds i8, ptr %35, i64 %34
  store i8 0, ptr %36, align 1
  br label %textbuffer_putc.exit

textbuffer_putc.exit:                             ; preds = %28, %33
  %37 = load ptr, ptr %1, align 8
  %38 = load i64, ptr %22, align 8
  %39 = add i64 %38, -1
  %40 = tail call i32 %2(ptr noundef %3, ptr noundef %37, i64 noundef %39, ptr noundef %4) #8
  %.not33 = icmp eq i32 %40, 0
  %. = select i1 %.not33, i32 0, i32 20
  br label %.critedge36

41:                                               ; preds = %.lr.ph, %.lr.ph
  %42 = tail call fastcc i32 @build_suffixtree_ascend(ptr noundef nonnull %.03142, ptr noundef %1, ptr noundef null, ptr noundef %2, ptr noundef %3, ptr noundef %4), !range !4
  %.not32 = icmp eq i32 %42, 0
  %.37 = select i1 %.not32, i32 0, i32 20
  br label %.critedge36

.critedge36:                                      ; preds = %7, %.lr.ph, %5, %20, %41, %textbuffer_putc.exit, %16, %10
  %.0 = phi i32 [ 20, %10 ], [ 20, %16 ], [ %., %textbuffer_putc.exit ], [ %.37, %41 ], [ 0, %20 ], [ 0, %5 ], [ 0, %.lr.ph ], [ 0, %7 ]
  ret i32 %.0
}